; Function Attrs: mustprogress nofree nounwind willreturn memory(read, inaccessiblemem: none) uwtable
define internal i32 @row_security_policy_cmp(ptr noundef readonly captures(none) %0, ptr noundef readonly captures(none) %1) #4 {
  %3 = load ptr, ptr %0, align 8
  %4 = load ptr, ptr %1, align 8
  %5 = load ptr, ptr %3, align 8
  %6 = icmp eq ptr %5, null
  %7 = load ptr, ptr %4, align 8
  br i1 %6, label %8, label %11

8:                                                ; preds = %2
  %9 = icmp ne ptr %7, null
  %10 = zext i1 %9 to i32
  br label %15

11:                                               ; preds = %2
  %12 = icmp eq ptr %7, null
  br i1 %12, label %15, label %13

13:                                               ; preds = %11
  %14 = tail call i32 @strcmp(ptr noundef nonnull dereferenceable(1) %5, ptr noundef nonnull dereferenceable(1) %7) #9
  br label %15

15:                                               ; preds = %11, %13, %8
  %.0 = phi i32 [ %10, %8 ], [ %14, %13 ], [ -1, %11 ]
  ret i32 %.0
}